target datalayout = "e-m:e-p270:32:32-p271:32:32-p272:64:64-i64:64-i128:128-f80:128-n8:16:32:64-S128"
target triple = "x86_64-pc-linux-gnu"

%struct.pmix_class_t = type { ptr, ptr, ptr, ptr, i32, i32, ptr, ptr, i64 }
%struct.pmix_object_t = type { %union.pthread_mutex_t, ptr, i32, %struct.pmix_tma }
%union.pthread_mutex_t = type { %struct.__pthread_mutex_s }
%struct.__pthread_mutex_s = type { i32, i32, i32, i32, i32, i16, i16, %struct.__pthread_internal_list }
%struct.__pthread_internal_list = type { ptr, ptr }
%struct.pmix_tma = type { ptr, ptr, ptr, ptr, ptr, ptr, ptr, ptr }
%struct.pmix_list_item_t = type { %struct.pmix_object_t, ptr, ptr, i32 }
%struct.prte_bp_graph_t = type { i32, %struct.pmix_pointer_array_t, i32, i32, ptr, ptr }
%struct.pmix_pointer_array_t = type { %struct.pmix_object_t, i32, i32, i32, i32, i32, ptr, ptr }
%struct.prte_bp_graph_vertex_t = type { i32, ptr, %struct.pmix_list_t, %struct.pmix_list_t }
%struct.pmix_list_t = type { %struct.pmix_object_t, %struct.pmix_list_item_t, i64 }

@.str.1 = private unnamed_addr constant [37 x i8] c"PRTE ERROR: %s in file %s at line %d\00", align 1
@.str.2 = private unnamed_addr constant [18 x i8] c"bipartite_graph.c\00", align 1
@pmix_class_init_epoch = external global i32, align 4
@pmix_list_t_class = external global %struct.pmix_class_t, align 8

; Function Attrs: inlinehint nounwind uwtable
define internal void @pmix_obj_run_constructors(ptr noundef %0) #4 {
  %2 = alloca ptr, align 8
  %3 = alloca ptr, align 8
  store ptr %0, ptr %2, align 8, !tbaa !31
  call void @llvm.lifetime.start.p0(i64 8, ptr %3) #12
  %4 = load ptr, ptr %2, align 8, !tbaa !31
  %5 = getelementptr inbounds nuw %struct.pmix_object_t, ptr %4, i32 0, i32 1
  %6 = load ptr, ptr %5, align 8, !tbaa !15
  %7 = getelementptr inbounds nuw %struct.pmix_class_t, ptr %6, i32 0, i32 6
  %8 = load ptr, ptr %7, align 8, !tbaa !44
  store ptr %8, ptr %3, align 8, !tbaa !19
  br label %9

9:                                                ; preds = %13, %1
  %10 = load ptr, ptr %3, align 8, !tbaa !19
  %11 = load ptr, ptr %10, align 8, !tbaa !19
  %12 = icmp ne ptr null, %11
  br i1 %12, label %13, label %19

13:                                               ; preds = %9
  %14 = load ptr, ptr %3, align 8, !tbaa !19
  %15 = load ptr, ptr %14, align 8, !tbaa !19
  %16 = load ptr, ptr %2, align 8, !tbaa !31
  call void %15(ptr noundef %16)
  %17 = load ptr, ptr %3, align 8, !tbaa !19
  %18 = getelementptr inbounds nuw ptr, ptr %17, i32 1
  store ptr %18, ptr %3, align 8, !tbaa !19
  br label %9, !llvm.loop !45

19:                                               ; preds = %9
  call void @llvm.lifetime.end.p0(i64 8, ptr %3) #12
  ret void
}

; Function Attrs: inlinehint nounwind uwtable
define internal void @pmix_obj_construct_tma(ptr noundef %0, ptr noundef %1) #4 {
  %3 = alloca ptr, align 8
  %4 = alloca ptr, align 8
  store ptr %0, ptr %3, align 8, !tbaa !31
  store ptr %1, ptr %4, align 8, !tbaa !33
  %5 = load ptr, ptr %4, align 8, !tbaa !33
  %6 = icmp eq ptr null, %5
  br i1 %6, label %7, label %32

7:                                                ; preds = %2
  %8 = load ptr, ptr %3, align 8, !tbaa !31
  %9 = getelementptr inbounds nuw %struct.pmix_object_t, ptr %8, i32 0, i32 3
  %10 = getelementptr inbounds nuw %struct.pmix_tma, ptr %9, i32 0, i32 0
  store ptr null, ptr %10, align 8, !tbaa !35
  %11 = load ptr, ptr %3, align 8, !tbaa !31
  %12 = getelementptr inbounds nuw %struct.pmix_object_t, ptr %11, i32 0, i32 3
  %13 = getelementptr inbounds nuw %struct.pmix_tma, ptr %12, i32 0, i32 1
  store ptr null, ptr %13, align 8, !tbaa !36
  %14 = load ptr, ptr %3, align 8, !tbaa !31
  %15 = getelementptr inbounds nuw %struct.pmix_object_t, ptr %14, i32 0, i32 3
  %16 = getelementptr inbounds nuw %struct.pmix_tma, ptr %15, i32 0, i32 2
  store ptr null, ptr %16, align 8, !tbaa !37
  %17 = load ptr, ptr %3, align 8, !tbaa !31
  %18 = getelementptr inbounds nuw %struct.pmix_object_t, ptr %17, i32 0, i32 3
  %19 = getelementptr inbounds nuw %struct.pmix_tma, ptr %18, i32 0, i32 3
  store ptr null, ptr %19, align 8, !tbaa !38
  %20 = load ptr, ptr %3, align 8, !tbaa !31
  %21 = getelementptr inbounds nuw %struct.pmix_object_t, ptr %20, i32 0, i32 3
  %22 = getelementptr inbounds nuw %struct.pmix_tma, ptr %21, i32 0, i32 4
  store ptr null, ptr %22, align 8, !tbaa !39
  %23 = load ptr, ptr %3, align 8, !tbaa !31
  %24 = getelementptr inbounds nuw %struct.pmix_object_t, ptr %23, i32 0, i32 3
  %25 = getelementptr inbounds nuw %struct.pmix_tma, ptr %24, i32 0, i32 5
  store ptr null, ptr %25, align 8, !tbaa !40
  %26 = load ptr, ptr %3, align 8, !tbaa !31
  %27 = getelementptr inbounds nuw %struct.pmix_object_t, ptr %26, i32 0, i32 3
  %28 = getelementptr inbounds nuw %struct.pmix_tma, ptr %27, i32 0, i32 6
  store ptr null, ptr %28, align 8, !tbaa !41
  %29 = load ptr, ptr %3, align 8, !tbaa !31
  %30 = getelementptr inbounds nuw %struct.pmix_object_t, ptr %29, i32 0, i32 3
  %31 = getelementptr inbounds nuw %struct.pmix_tma, ptr %30, i32 0, i32 7
  store ptr null, ptr %31, align 8, !tbaa !42
  br label %36

32:                                               ; preds = %2
  %33 = load ptr, ptr %3, align 8, !tbaa !31
  %34 = getelementptr inbounds nuw %struct.pmix_object_t, ptr %33, i32 0, i32 3
  %35 = load ptr, ptr %4, align 8, !tbaa !33
  call void @llvm.memcpy.p0.p0.i64(ptr align 8 %34, ptr align 8 %35, i64 64, i1 false), !tbaa.struct !43
  br label %36

36:                                               ; preds = %32, %7
  ret void
}

; Function Attrs: nounwind uwtable
define i32 @prte_bp_graph_add_vertex(ptr noundef %0, ptr noundef %1, ptr noundef %2) #0 {
  %4 = alloca i32, align 4
  %5 = alloca ptr, align 8
  %6 = alloca ptr, align 8
  %7 = alloca ptr, align 8
  %8 = alloca ptr, align 8
  %9 = alloca i32, align 4
  store ptr %0, ptr %5, align 8, !tbaa !22
  store ptr %1, ptr %6, align 8, !tbaa !19
  store ptr %2, ptr %7, align 8, !tbaa !87
  call void @llvm.lifetime.start.p0(i64 8, ptr %8) #12
  %10 = call noalias ptr @calloc(i64 noundef 1, i64 noundef 560) #13
  store ptr %10, ptr %8, align 8, !tbaa !48
  %11 = load ptr, ptr %8, align 8, !tbaa !48
  %12 = icmp eq ptr null, %11
  br i1 %12, label %13, label %18

13:                                               ; preds = %3
  br label %14

14:                                               ; preds = %13
  %15 = call ptr @prte_strerror(i32 noundef -2)
  call void (i32, ptr, ...) @pmix_output(i32 noundef 0, ptr noundef @.str.1, ptr noundef %15, ptr noundef @.str.2, i32 noundef 391)
  br label %16

16:                                               ; preds = %14
  br label %17

17:                                               ; preds = %16
  store i32 -2, ptr %4, align 4
  store i32 1, ptr %9, align 4
  br label %99

18:                                               ; preds = %3
  %19 = load ptr, ptr %5, align 8, !tbaa !22
  %20 = getelementptr inbounds nuw %struct.prte_bp_graph_t, ptr %19, i32 0, i32 1
  %21 = load ptr, ptr %8, align 8, !tbaa !48
  %22 = call i32 @pmix_pointer_array_add(ptr noundef %20, ptr noundef %21)
  %23 = load ptr, ptr %8, align 8, !tbaa !48
  %24 = getelementptr inbounds nuw %struct.prte_bp_graph_vertex_t, ptr %23, i32 0, i32 0
  store i32 %22, ptr %24, align 8, !tbaa !89
  %25 = load ptr, ptr %8, align 8, !tbaa !48
  %26 = getelementptr inbounds nuw %struct.prte_bp_graph_vertex_t, ptr %25, i32 0, i32 0
  %27 = load i32, ptr %26, align 8, !tbaa !89
  %28 = icmp eq i32 -1, %27
  br i1 %28, label %29, label %35

29:                                               ; preds = %18
  %30 = load ptr, ptr %8, align 8, !tbaa !48
  call void @free(ptr noundef %30) #12
  br label %31

31:                                               ; preds = %29
  %32 = call ptr @prte_strerror(i32 noundef -2)
  call void (i32, ptr, ...) @pmix_output(i32 noundef 0, ptr noundef @.str.1, ptr noundef %32, ptr noundef @.str.2, i32 noundef 400)
  br label %33

33:                                               ; preds = %31
  br label %34

34:                                               ; preds = %33
  store i32 -2, ptr %4, align 4
  store i32 1, ptr %9, align 4
  br label %99

35:                                               ; preds = %18
  %36 = load ptr, ptr %5, align 8, !tbaa !22
  %37 = getelementptr inbounds nuw %struct.prte_bp_graph_t, ptr %36, i32 0, i32 0
  %38 = load i32, ptr %37, align 8, !tbaa !47
  %39 = add nsw i32 %38, 1
  store i32 %39, ptr %37, align 8, !tbaa !47
  %40 = load ptr, ptr %6, align 8, !tbaa !19
  %41 = load ptr, ptr %8, align 8, !tbaa !48
  %42 = getelementptr inbounds nuw %struct.prte_bp_graph_vertex_t, ptr %41, i32 0, i32 1
  store ptr %40, ptr %42, align 8, !tbaa !75
  br label %43

43:                                               ; preds = %35
  br label %44

44:                                               ; preds = %43
  br label %45

45:                                               ; preds = %44
  %46 = load i32, ptr @pmix_class_init_epoch, align 4, !tbaa !8
  %47 = load i32, ptr getelementptr inbounds nuw (%struct.pmix_class_t, ptr @pmix_list_t_class, i32 0, i32 4), align 8, !tbaa !10
  %48 = icmp ne i32 %46, %47
  br i1 %48, label %49, label %50

49:                                               ; preds = %45
  call void @pmix_class_initialize(ptr noundef @pmix_list_t_class)
  br label %50

50:                                               ; preds = %49, %45
  %51 = load ptr, ptr %8, align 8, !tbaa !48
  %52 = getelementptr inbounds nuw %struct.prte_bp_graph_vertex_t, ptr %51, i32 0, i32 2
  %53 = getelementptr inbounds nuw %struct.pmix_object_t, ptr %52, i32 0, i32 1
  store ptr @pmix_list_t_class, ptr %53, align 8, !tbaa !15
  %54 = load ptr, ptr %8, align 8, !tbaa !48
  %55 = getelementptr inbounds nuw %struct.prte_bp_graph_vertex_t, ptr %54, i32 0, i32 2
  %56 = getelementptr inbounds nuw %struct.pmix_object_t, ptr %55, i32 0, i32 2
  store i32 1, ptr %56, align 8, !tbaa !18
  %57 = load ptr, ptr %8, align 8, !tbaa !48
  %58 = getelementptr inbounds nuw %struct.prte_bp_graph_vertex_t, ptr %57, i32 0, i32 2
  call void @pmix_obj_construct_tma(ptr noundef %58, ptr noundef null)
  %59 = load ptr, ptr %8, align 8, !tbaa !48
  %60 = getelementptr inbounds nuw %struct.prte_bp_graph_vertex_t, ptr %59, i32 0, i32 2
  call void @pmix_obj_run_constructors(ptr noundef %60)
  br label %61

61:                                               ; preds = %50
  br label %62

62:                                               ; preds = %61
  br label %63

63:                                               ; preds = %62
  br label %64

64:                                               ; preds = %63
  br label %65

65:                                               ; preds = %64
  br label %66

66:                                               ; preds = %65
  br label %67

67:                                               ; preds = %66
  br label %68

68:                                               ; preds = %67
  br label %69

69:                                               ; preds = %68
  %70 = load i32, ptr @pmix_class_init_epoch, align 4, !tbaa !8
  %71 = load i32, ptr getelementptr inbounds nuw (%struct.pmix_class_t, ptr @pmix_list_t_class, i32 0, i32 4), align 8, !tbaa !10
  %72 = icmp ne i32 %70, %71
  br i1 %72, label %73, label %74

73:                                               ; preds = %69
  call void @pmix_class_initialize(ptr noundef @pmix_list_t_class)
  br label %74

74:                                               ; preds = %73, %69
  %75 = load ptr, ptr %8, align 8, !tbaa !48
  %76 = getelementptr inbounds nuw %struct.prte_bp_graph_vertex_t, ptr %75, i32 0, i32 3
  %77 = getelementptr inbounds nuw %struct.pmix_object_t, ptr %76, i32 0, i32 1
  store ptr @pmix_list_t_class, ptr %77, align 8, !tbaa !15
  %78 = load ptr, ptr %8, align 8, !tbaa !48
  %79 = getelementptr inbounds nuw %struct.prte_bp_graph_vertex_t, ptr %78, i32 0, i32 3
  %80 = getelementptr inbounds nuw %struct.pmix_object_t, ptr %79, i32 0, i32 2
  store i32 1, ptr %80, align 8, !tbaa !18
  %81 = load ptr, ptr %8, align 8, !tbaa !48
  %82 = getelementptr inbounds nuw %struct.prte_bp_graph_vertex_t, ptr %81, i32 0, i32 3
  call void @pmix_obj_construct_tma(ptr noundef %82, ptr noundef null)
  %83 = load ptr, ptr %8, align 8, !tbaa !48
  %84 = getelementptr inbounds nuw %struct.prte_bp_graph_vertex_t, ptr %83, i32 0, i32 3
  call void @pmix_obj_run_constructors(ptr noundef %84)
  br label %85

85:                                               ; preds = %74
  br label %86

86:                                               ; preds = %85
  br label %87

87:                                               ; preds = %86
  br label %88

88:                                               ; preds = %87
  br label %89

89:                                               ; preds = %88
  br label %90

90:                                               ; preds = %89
  %91 = load ptr, ptr %7, align 8, !tbaa !87
  %92 = icmp ne ptr null, %91
  br i1 %92, label %93, label %98

93:                                               ; preds = %90
  %94 = load ptr, ptr %8, align 8, !tbaa !48
  %95 = getelementptr inbounds nuw %struct.prte_bp_graph_vertex_t, ptr %94, i32 0, i32 0
  %96 = load i32, ptr %95, align 8, !tbaa !89
  %97 = load ptr, ptr %7, align 8, !tbaa !87
  store i32 %96, ptr %97, align 4, !tbaa !8
  br label %98

98:                                               ; preds = %93, %90
  store i32 0, ptr %4, align 4
  store i32 1, ptr %9, align 4
  br label %99

99:                                               ; preds = %98, %34, %17
  call void @llvm.lifetime.end.p0(i64 8, ptr %8) #12
  %100 = load i32, ptr %4, align 4
  ret i32 %100
}