; Function Attrs: nounwind uwtable
define range(i32 -2, 1) i32 @prte_bp_graph_add_vertex(ptr noundef %0, ptr noundef %1, ptr noundef writeonly captures(address_is_null) %2) local_unnamed_addr #0 {
  %4 = tail call noalias dereferenceable_or_null(560) ptr @calloc(i64 noundef 1, i64 noundef 560) #15
  %5 = icmp eq ptr %4, null
  br i1 %5, label %6, label %8

6:                                                ; preds = %3
  %7 = tail call ptr @prte_strerror(i32 noundef -2) #14
  tail call void (i32, ptr, ...) @pmix_output(i32 noundef 0, ptr noundef nonnull @.str.1, ptr noundef %7, ptr noundef nonnull @.str.2, i32 noundef 391) #14
  br label %46

8:                                                ; preds = %3
  %9 = getelementptr inbounds nuw i8, ptr %0, i64 8
  %10 = tail call i32 @pmix_pointer_array_add(ptr noundef nonnull %9, ptr noundef nonnull %4) #14
  store i32 %10, ptr %4, align 8, !tbaa !60
  %11 = icmp eq i32 %10, -1
  br i1 %11, label %12, label %14

12:                                               ; preds = %8
  tail call void @free(ptr noundef nonnull %4) #14
  %13 = tail call ptr @prte_strerror(i32 noundef -2) #14
  tail call void (i32, ptr, ...) @pmix_output(i32 noundef 0, ptr noundef nonnull @.str.1, ptr noundef %13, ptr noundef nonnull @.str.2, i32 noundef 400) #14
  br label %46

14:                                               ; preds = %8
  %15 = load i32, ptr %0, align 8, !tbaa !32
  %16 = add nsw i32 %15, 1
  store i32 %16, ptr %0, align 8, !tbaa !32
  %17 = getelementptr inbounds nuw i8, ptr %4, i64 8
  store ptr %1, ptr %17, align 8, !tbaa !51
  %18 = load i32, ptr @pmix_class_init_epoch, align 4, !tbaa !3
  %19 = load i32, ptr getelementptr inbounds nuw (i8, ptr @pmix_list_t_class, i64 32), align 8, !tbaa !7
  %.not = icmp eq i32 %18, %19
  br i1 %.not, label %21, label %20

20:                                               ; preds = %14
  tail call void @pmix_class_initialize(ptr noundef nonnull @pmix_list_t_class) #14
  br label %21

21:                                               ; preds = %20, %14
  %22 = getelementptr inbounds nuw i8, ptr %4, i64 16
  %23 = getelementptr inbounds nuw i8, ptr %4, i64 56
  store ptr @pmix_list_t_class, ptr %23, align 8, !tbaa !13
  %24 = getelementptr inbounds nuw i8, ptr %4, i64 64
  store i32 1, ptr %24, align 8, !tbaa !16
  %25 = getelementptr inbounds nuw i8, ptr %4, i64 72
  tail call void @llvm.memset.p0.i64(ptr noundef nonnull align 8 dereferenceable(64) %25, i8 0, i64 64, i1 false)
  %26 = load ptr, ptr getelementptr inbounds nuw (i8, ptr @pmix_list_t_class, i64 40), align 8, !tbaa !17
  %27 = load ptr, ptr %26, align 8, !tbaa !18
  %.not6.i = icmp eq ptr %27, null
  br i1 %.not6.i, label %pmix_obj_run_constructors.exit, label %.lr.ph.i

.lr.ph.i:                                         ; preds = %21, %.lr.ph.i
  %28 = phi ptr [ %30, %.lr.ph.i ], [ %27, %21 ]
  %.07.i = phi ptr [ %29, %.lr.ph.i ], [ %26, %21 ]
  tail call void %28(ptr noundef nonnull %22) #14
  %29 = getelementptr inbounds nuw i8, ptr %.07.i, i64 8
  %30 = load ptr, ptr %29, align 8, !tbaa !18
  %.not.i = icmp eq ptr %30, null
  br i1 %.not.i, label %pmix_obj_run_constructors.exit, label %.lr.ph.i, !llvm.loop !19

pmix_obj_run_constructors.exit:                   ; preds = %.lr.ph.i, %21
  %31 = load i32, ptr @pmix_class_init_epoch, align 4, !tbaa !3
  %32 = load i32, ptr getelementptr inbounds nuw (i8, ptr @pmix_list_t_class, i64 32), align 8, !tbaa !7
  %.not22 = icmp eq i32 %31, %32
  br i1 %.not22, label %34, label %33

33:                                               ; preds = %pmix_obj_run_constructors.exit
  tail call void @pmix_class_initialize(ptr noundef nonnull @pmix_list_t_class) #14
  br label %34

34:                                               ; preds = %33, %pmix_obj_run_constructors.exit
  %35 = getelementptr inbounds nuw i8, ptr %4, i64 288
  %36 = getelementptr inbounds nuw i8, ptr %4, i64 328
  store ptr @pmix_list_t_class, ptr %36, align 8, !tbaa !13
  %37 = getelementptr inbounds nuw i8, ptr %4, i64 336
  store i32 1, ptr %37, align 8, !tbaa !16
  %38 = getelementptr inbounds nuw i8, ptr %4, i64 344
  tail call void @llvm.memset.p0.i64(ptr noundef nonnull align 8 dereferenceable(64) %38, i8 0, i64 64, i1 false)
  %39 = load ptr, ptr getelementptr inbounds nuw (i8, ptr @pmix_list_t_class, i64 40), align 8, !tbaa !17
  %40 = load ptr, ptr %39, align 8, !tbaa !18
  %.not6.i24 = icmp eq ptr %40, null
  br i1 %.not6.i24, label %pmix_obj_run_constructors.exit28, label %.lr.ph.i25

.lr.ph.i25:                                       ; preds = %34, %.lr.ph.i25
  %41 = phi ptr [ %43, %.lr.ph.i25 ], [ %40, %34 ]
  %.07.i26 = phi ptr [ %42, %.lr.ph.i25 ], [ %39, %34 ]
  tail call void %41(ptr noundef nonnull %35) #14
  %42 = getelementptr inbounds nuw i8, ptr %.07.i26, i64 8
  %43 = load ptr, ptr %42, align 8, !tbaa !18
  %.not.i27 = icmp eq ptr %43, null
  br i1 %.not.i27, label %pmix_obj_run_constructors.exit28, label %.lr.ph.i25, !llvm.loop !19

pmix_obj_run_constructors.exit28:                 ; preds = %.lr.ph.i25, %34
  %.not23 = icmp eq ptr %2, null
  br i1 %.not23, label %46, label %44

44:                                               ; preds = %pmix_obj_run_constructors.exit28
  %45 = load i32, ptr %4, align 8, !tbaa !60
  store i32 %45, ptr %2, align 4, !tbaa !3
  br label %46

46:                                               ; preds = %pmix_obj_run_constructors.exit28, %44, %12, %6
  %.0 = phi i32 [ -2, %6 ], [ -2, %12 ], [ 0, %44 ], [ 0, %pmix_obj_run_constructors.exit28 ]
  ret i32 %.0
}